; Function Attrs: nounwind uwtable
define hidden noundef zeroext i1 @mi_heap_check_owned(ptr noundef readonly captures(address) %0, ptr noundef %1) local_unnamed_addr #0 {
  %3 = alloca i64, align 8
  %4 = icmp eq ptr %0, null
  br i1 %4, label %mi_heap_visit_pages.exit, label %5

5:                                                ; preds = %2
  %6 = icmp ne ptr %0, @_mi_heap_empty
  %7 = ptrtoint ptr %1 to i64
  %8 = and i64 %7, 7
  %.not = icmp eq i64 %8, 0
  %or.cond = and i1 %6, %.not
  br i1 %or.cond, label %9, label %mi_heap_visit_pages.exit

9:                                                ; preds = %5
  %10 = getelementptr inbounds nuw i8, ptr %0, i64 3016
  %11 = load i64, ptr %10, align 8, !tbaa !27
  %12 = icmp eq i64 %11, 0
  br i1 %12, label %mi_heap_visit_pages.exit, label %.preheader.i

.preheader.i:                                     ; preds = %9
  %13 = getelementptr inbounds nuw i8, ptr %0, i64 1040
  br label %14

14:                                               ; preds = %._crit_edge, %.preheader.i
  %.03036.i = phi i64 [ 0, %.preheader.i ], [ %40, %._crit_edge ]
  %15 = getelementptr inbounds nuw [75 x %struct.mi_page_queue_s], ptr %13, i64 0, i64 %.03036.i
  %16 = load ptr, ptr %15, align 8, !tbaa !28
  %.not.i11 = icmp eq ptr %16, null
  br i1 %.not.i11, label %._crit_edge, label %.lr.ph

17:                                               ; preds = %mi_heap_page_check_owned.exit
  %.not.i = icmp eq ptr %19, null
  br i1 %.not.i, label %._crit_edge, label %.lr.ph, !llvm.loop !35

.lr.ph:                                           ; preds = %14, %17
  %.022.i12 = phi ptr [ %19, %17 ], [ %16, %14 ]
  %18 = getelementptr inbounds nuw i8, ptr %.022.i12, i64 56
  %19 = load ptr, ptr %18, align 8, !tbaa !31
  %20 = ptrtoint ptr %.022.i12 to i64
  %21 = and i64 %20, -67108864
  %22 = inttoptr i64 %21 to ptr
  %23 = call ptr @_mi_segment_page_start(ptr noundef %22, ptr noundef nonnull %.022.i12, ptr noundef null) #8
  %24 = getelementptr inbounds nuw i8, ptr %.022.i12, i64 10
  %25 = load i16, ptr %24, align 2, !tbaa !56
  %26 = getelementptr inbounds nuw i8, ptr %.022.i12, i64 28
  %27 = load i32, ptr %26, align 4, !tbaa !46
  %28 = icmp sgt i32 %27, -1
  br i1 %28, label %29, label %31, !prof !47

29:                                               ; preds = %.lr.ph
  %30 = zext nneg i32 %27 to i64
  br label %mi_heap_page_check_owned.exit

31:                                               ; preds = %.lr.ph
  call void @llvm.lifetime.start.p0(i64 8, ptr nonnull %3) #8
  %32 = call ptr @_mi_segment_page_start(ptr noundef %22, ptr noundef nonnull %.022.i12, ptr noundef nonnull %3) #8
  %33 = load i64, ptr %3, align 8, !tbaa !43
  call void @llvm.lifetime.end.p0(i64 8, ptr nonnull %3) #8
  br label %mi_heap_page_check_owned.exit

mi_heap_page_check_owned.exit:                    ; preds = %29, %31
  %.0.i.i = phi i64 [ %30, %29 ], [ %33, %31 ]
  %34 = zext i16 %25 to i64
  %35 = mul i64 %.0.i.i, %34
  %36 = getelementptr inbounds nuw i8, ptr %23, i64 %35
  %37 = icmp uge ptr %1, %23
  %38 = icmp ult ptr %1, %36
  %39 = select i1 %37, i1 %38, i1 false
  br i1 %39, label %mi_heap_visit_pages.exit, label %17, !llvm.loop !35

._crit_edge:                                      ; preds = %17, %14
  %40 = add nuw nsw i64 %.03036.i, 1
  %exitcond.i = icmp eq i64 %40, 75
  br i1 %exitcond.i, label %mi_heap_visit_pages.exit, label %14, !llvm.loop !37

mi_heap_visit_pages.exit:                         ; preds = %._crit_edge, %mi_heap_page_check_owned.exit, %9, %2, %5
  %.0 = phi i1 [ false, %5 ], [ false, %2 ], [ false, %9 ], [ true, %mi_heap_page_check_owned.exit ], [ false, %._crit_edge ]
  ret i1 %.0
}